; ModuleID = '19/2635.c'
source_filename = "19/2635.c"
target datalayout = "e-m:e-p270:32:32-p271:32:32-p272:64:64-i64:64-f80:128-n8:16:32:64-S128"
target triple = "x86_64-pc-linux-gnu"

@.str = private unnamed_addr constant [4 x i8] c"%s \00", align 1
@.str.1 = private unnamed_addr constant [3 x i8] c"%s\00", align 1

; Function Attrs: noinline nounwind uwtable
define dso_local i32 @main() #0 {
  %1 = alloca i32, align 4
  %2 = alloca [101 x i8], align 16
  %3 = alloca [101 x i8], align 16
  %4 = alloca [101 x i8], align 16
  %5 = alloca [101 x [101 x i8]], align 16
  %6 = alloca i32, align 4
  %7 = alloca i32, align 4
  %8 = alloca i32, align 4
  %9 = alloca i32, align 4
  store i32 0, i32* %1, align 4
  store i32 0, i32* %8, align 4
  store i32 0, i32* %7, align 4
  store i32 0, i32* %6, align 4
  store i32 0, i32* %9, align 4
  %10 = getelementptr inbounds [101 x i8], [101 x i8]* %2, i64 0, i64 0
  %11 = call i32 (i8*, ...) bitcast (i32 (...)* @gets to i32 (i8*, ...)*)(i8* %10)
  %12 = getelementptr inbounds [101 x i8], [101 x i8]* %3, i64 0, i64 0
  %13 = call i32 (i8*, ...) bitcast (i32 (...)* @gets to i32 (i8*, ...)*)(i8* %12)
  %14 = getelementptr inbounds [101 x i8], [101 x i8]* %4, i64 0, i64 0
  %15 = call i32 (i8*, ...) bitcast (i32 (...)* @gets to i32 (i8*, ...)*)(i8* %14)
  br label %16

16:                                               ; preds = %52, %0
  %17 = load i32, i32* %6, align 4
  %18 = sext i32 %17 to i64
  %19 = getelementptr inbounds [101 x i8], [101 x i8]* %2, i64 0, i64 %18
  %20 = load i8, i8* %19, align 1
  %21 = sext i8 %20 to i32
  %22 = icmp ne i32 %21, 0
  br i1 %22, label %23, label %55

23:                                               ; preds = %16
  %24 = load i32, i32* %6, align 4
  %25 = sext i32 %24 to i64
  %26 = getelementptr inbounds [101 x i8], [101 x i8]* %2, i64 0, i64 %25
  %27 = load i8, i8* %26, align 1
  %28 = load i32, i32* %7, align 4
  %29 = sext i32 %28 to i64
  %30 = getelementptr inbounds [101 x [101 x i8]], [101 x [101 x i8]]* %5, i64 0, i64 %29
  %31 = load i32, i32* %8, align 4
  %32 = sext i32 %31 to i64
  %33 = getelementptr inbounds [101 x i8], [101 x i8]* %30, i64 0, i64 %32
  store i8 %27, i8* %33, align 1
  %34 = load i32, i32* %8, align 4
  %35 = add nsw i32 %34, 1
  store i32 %35, i32* %8, align 4
  %36 = load i32, i32* %6, align 4
  %37 = sext i32 %36 to i64
  %38 = getelementptr inbounds [101 x i8], [101 x i8]* %2, i64 0, i64 %37
  %39 = load i8, i8* %38, align 1
  %40 = sext i8 %39 to i32
  %41 = icmp eq i32 %40, 32
  br i1 %41, label %42, label %52

42:                                               ; preds = %23
  %43 = load i32, i32* %7, align 4
  %44 = sext i32 %43 to i64
  %45 = getelementptr inbounds [101 x [101 x i8]], [101 x [101 x i8]]* %5, i64 0, i64 %44
  %46 = load i32, i32* %8, align 4
  %47 = sub nsw i32 %46, 1
  %48 = sext i32 %47 to i64
  %49 = getelementptr inbounds [101 x i8], [101 x i8]* %45, i64 0, i64 %48
  store i8 0, i8* %49, align 1
  %50 = load i32, i32* %7, align 4
  %51 = add nsw i32 %50, 1
  store i32 %51, i32* %7, align 4
  store i32 0, i32* %8, align 4
  br label %52

52:                                               ; preds = %42, %23
  %53 = load i32, i32* %6, align 4
  %54 = add nsw i32 %53, 1
  store i32 %54, i32* %6, align 4
  br label %16

55:                                               ; preds = %16
  %56 = load i32, i32* %7, align 4
  %57 = sext i32 %56 to i64
  %58 = getelementptr inbounds [101 x [101 x i8]], [101 x [101 x i8]]* %5, i64 0, i64 %57
  %59 = load i32, i32* %8, align 4
  %60 = sext i32 %59 to i64
  %61 = getelementptr inbounds [101 x i8], [101 x i8]* %58, i64 0, i64 %60
  store i8 0, i8* %61, align 1
  store i32 0, i32* %6, align 4
  br label %62

62:                                               ; preds = %82, %55
  %63 = load i32, i32* %6, align 4
  %64 = load i32, i32* %7, align 4
  %65 = icmp sle i32 %63, %64
  br i1 %65, label %66, label %85

66:                                               ; preds = %62
  %67 = load i32, i32* %6, align 4
  %68 = sext i32 %67 to i64
  %69 = getelementptr inbounds [101 x [101 x i8]], [101 x [101 x i8]]* %5, i64 0, i64 %68
  %70 = getelementptr inbounds [101 x i8], [101 x i8]* %69, i64 0, i64 0
  %71 = getelementptr inbounds [101 x i8], [101 x i8]* %3, i64 0, i64 0
  %72 = call i32 @strcmp(i8* %70, i8* %71) #4
  %73 = icmp eq i32 %72, 0
  br i1 %73, label %74, label %81

74:                                               ; preds = %66
  %75 = load i32, i32* %6, align 4
  %76 = sext i32 %75 to i64
  %77 = getelementptr inbounds [101 x [101 x i8]], [101 x [101 x i8]]* %5, i64 0, i64 %76
  %78 = getelementptr inbounds [101 x i8], [101 x i8]* %77, i64 0, i64 0
  %79 = getelementptr inbounds [101 x i8], [101 x i8]* %4, i64 0, i64 0
  %80 = call i8* @strcpy(i8* %78, i8* %79) #5
  br label %81

81:                                               ; preds = %74, %66
  br label %82

82:                                               ; preds = %81
  %83 = load i32, i32* %6, align 4
  %84 = add nsw i32 %83, 1
  store i32 %84, i32* %6, align 4
  br label %62

85:                                               ; preds = %62
  store i32 0, i32* %6, align 4
  br label %86

86:                                               ; preds = %96, %85
  %87 = load i32, i32* %6, align 4
  %88 = load i32, i32* %7, align 4
  %89 = icmp slt i32 %87, %88
  br i1 %89, label %90, label %99

90:                                               ; preds = %86
  %91 = load i32, i32* %6, align 4
  %92 = sext i32 %91 to i64
  %93 = getelementptr inbounds [101 x [101 x i8]], [101 x [101 x i8]]* %5, i64 0, i64 %92
  %94 = getelementptr inbounds [101 x i8], [101 x i8]* %93, i64 0, i64 0
  %95 = call i32 (i8*, ...) @printf(i8* getelementptr inbounds ([4 x i8], [4 x i8]* @.str, i64 0, i64 0), i8* %94)
  br label %96

96:                                               ; preds = %90
  %97 = load i32, i32* %6, align 4
  %98 = add nsw i32 %97, 1
  store i32 %98, i32* %6, align 4
  br label %86

99:                                               ; preds = %86
  %100 = load i32, i32* %6, align 4
  %101 = sext i32 %100 to i64
  %102 = getelementptr inbounds [101 x [101 x i8]], [101 x [101 x i8]]* %5, i64 0, i64 %101
  %103 = getelementptr inbounds [101 x i8], [101 x i8]* %102, i64 0, i64 0
  %104 = call i32 (i8*, ...) @printf(i8* getelementptr inbounds ([3 x i8], [3 x i8]* @.str.1, i64 0, i64 0), i8* %103)
  ret i32 0
}

declare dso_local i32 @gets(...) #1

; Function Attrs: nounwind readonly
declare dso_local i32 @strcmp(i8*, i8*) #2

; Function Attrs: nounwind
declare dso_local i8* @strcpy(i8*, i8*) #3

declare dso_local i32 @printf(i8*, ...) #1


!llvm.module.flags = !{!0}
!llvm.ident = !{!1}

!0 = !{i32 1, !"wchar_size", i32 4}
!1 = !{!"clang version 10.0.0-4ubuntu1 "}
