; ModuleID = 'source-C-CXX/18/2635.c'
source_filename = "source-C-CXX/18/2635.c"
target datalayout = "e-m:e-p270:32:32-p271:32:32-p272:64:64-i64:64-f80:128-n8:16:32:64-S128"
target triple = "x86_64-pc-linux-gnu"

@.str = private unnamed_addr constant [4 x i8] c"%s \00", align 1
@.str.1 = private unnamed_addr constant [3 x i8] c"%s\00", align 1

; Function Attrs: nounwind sspstrong uwtable
define dso_local i32 @main() local_unnamed_addr #0 {
  %1 = alloca [101 x i8], align 16
  %2 = alloca [101 x i8], align 16
  %3 = alloca [101 x i8], align 16
  %4 = alloca [101 x [101 x i8]], align 16
  %5 = getelementptr inbounds [101 x i8], [101 x i8]* %1, i64 0, i64 0
  call void @llvm.lifetime.start.p0i8(i64 101, i8* nonnull %5) #6
  %6 = getelementptr inbounds [101 x i8], [101 x i8]* %2, i64 0, i64 0
  call void @llvm.lifetime.start.p0i8(i64 101, i8* nonnull %6) #6
  %7 = getelementptr inbounds [101 x i8], [101 x i8]* %3, i64 0, i64 0
  call void @llvm.lifetime.start.p0i8(i64 101, i8* nonnull %7) #6
  %8 = getelementptr inbounds [101 x [101 x i8]], [101 x [101 x i8]]* %4, i64 0, i64 0, i64 0
  call void @llvm.lifetime.start.p0i8(i64 10201, i8* nonnull %8) #6
  %9 = call i32 (i8*, ...) bitcast (i32 (...)* @gets to i32 (i8*, ...)*)(i8* nonnull %5) #6
  %10 = call i32 (i8*, ...) bitcast (i32 (...)* @gets to i32 (i8*, ...)*)(i8* nonnull %6) #6
  %11 = call i32 (i8*, ...) bitcast (i32 (...)* @gets to i32 (i8*, ...)*)(i8* nonnull %7) #6
  %12 = load i8, i8* %5, align 16, !tbaa !5
  %13 = icmp eq i8 %12, 0
  br i1 %13, label %14, label %16

14:                                               ; preds = %0
  %15 = getelementptr inbounds [101 x [101 x i8]], [101 x [101 x i8]]* %4, i64 0, i64 0, i64 0
  store i8 0, i8* %15, align 16, !tbaa !5
  br label %40

16:                                               ; preds = %0, %28
  %17 = phi i64 [ %31, %28 ], [ 0, %0 ]
  %18 = phi i8 [ %33, %28 ], [ %12, %0 ]
  %19 = phi i32 [ %30, %28 ], [ 0, %0 ]
  %20 = phi i32 [ %29, %28 ], [ 0, %0 ]
  %21 = sext i32 %20 to i64
  %22 = sext i32 %19 to i64
  %23 = getelementptr inbounds [101 x [101 x i8]], [101 x [101 x i8]]* %4, i64 0, i64 %21, i64 %22
  store i8 %18, i8* %23, align 1, !tbaa !5
  %24 = add nsw i32 %19, 1
  %25 = icmp eq i8 %18, 32
  br i1 %25, label %26, label %28

26:                                               ; preds = %16
  store i8 0, i8* %23, align 1, !tbaa !5
  %27 = add nsw i32 %20, 1
  br label %28

28:                                               ; preds = %26, %16
  %29 = phi i32 [ %27, %26 ], [ %20, %16 ]
  %30 = phi i32 [ 0, %26 ], [ %24, %16 ]
  %31 = add nuw i64 %17, 1
  %32 = getelementptr inbounds [101 x i8], [101 x i8]* %1, i64 0, i64 %31
  %33 = load i8, i8* %32, align 1, !tbaa !5
  %34 = icmp eq i8 %33, 0
  br i1 %34, label %35, label %16, !llvm.loop !8

35:                                               ; preds = %28
  %36 = sext i32 %29 to i64
  %37 = sext i32 %30 to i64
  %38 = getelementptr inbounds [101 x [101 x i8]], [101 x [101 x i8]]* %4, i64 0, i64 %36, i64 %37
  store i8 0, i8* %38, align 1, !tbaa !5
  %39 = icmp slt i32 %29, 0
  br i1 %39, label %64, label %40

40:                                               ; preds = %14, %35
  %41 = phi i32 [ 0, %14 ], [ %29, %35 ]
  %42 = add nuw i32 %41, 1
  %43 = zext i32 %42 to i64
  br label %48

44:                                               ; preds = %55
  %45 = icmp sgt i32 %41, 0
  br i1 %45, label %46, label %64

46:                                               ; preds = %44
  %47 = zext i32 %41 to i64
  br label %58

48:                                               ; preds = %40, %55
  %49 = phi i64 [ 0, %40 ], [ %56, %55 ]
  %50 = getelementptr inbounds [101 x [101 x i8]], [101 x [101 x i8]]* %4, i64 0, i64 %49, i64 0
  %51 = call i32 @strcmp(i8* noundef nonnull %50, i8* noundef nonnull %6) #7
  %52 = icmp eq i32 %51, 0
  br i1 %52, label %53, label %55

53:                                               ; preds = %48
  %54 = call i8* @strcpy(i8* noundef nonnull %50, i8* noundef nonnull %7) #6
  br label %55

55:                                               ; preds = %48, %53
  %56 = add nuw nsw i64 %49, 1
  %57 = icmp eq i64 %56, %43
  br i1 %57, label %44, label %48, !llvm.loop !10

58:                                               ; preds = %46, %58
  %59 = phi i64 [ 0, %46 ], [ %62, %58 ]
  %60 = getelementptr inbounds [101 x [101 x i8]], [101 x [101 x i8]]* %4, i64 0, i64 %59, i64 0
  %61 = call i32 (i8*, ...) @printf(i8* nonnull dereferenceable(1) getelementptr inbounds ([4 x i8], [4 x i8]* @.str, i64 0, i64 0), i8* nonnull %60)
  %62 = add nuw nsw i64 %59, 1
  %63 = icmp eq i64 %62, %47
  br i1 %63, label %64, label %58, !llvm.loop !11

64:                                               ; preds = %58, %35, %44
  %65 = phi i32 [ 0, %44 ], [ 0, %35 ], [ %41, %58 ]
  %66 = zext i32 %65 to i64
  %67 = getelementptr inbounds [101 x [101 x i8]], [101 x [101 x i8]]* %4, i64 0, i64 %66, i64 0
  %68 = call i32 (i8*, ...) @printf(i8* nonnull dereferenceable(1) getelementptr inbounds ([3 x i8], [3 x i8]* @.str.1, i64 0, i64 0), i8* nonnull %67)
  call void @llvm.lifetime.end.p0i8(i64 10201, i8* nonnull %8) #6
  call void @llvm.lifetime.end.p0i8(i64 101, i8* nonnull %7) #6
  call void @llvm.lifetime.end.p0i8(i64 101, i8* nonnull %6) #6
  call void @llvm.lifetime.end.p0i8(i64 101, i8* nonnull %5) #6
  ret i32 0
}

; Function Attrs: argmemonly mustprogress nofree nosync nounwind willreturn
declare void @llvm.lifetime.start.p0i8(i64 immarg, i8* nocapture) #1

declare i32 @gets(...) local_unnamed_addr #2

; Function Attrs: argmemonly mustprogress nofree nounwind readonly willreturn
declare i32 @strcmp(i8* nocapture, i8* nocapture) local_unnamed_addr #3

; Function Attrs: argmemonly mustprogress nofree nounwind willreturn
declare i8* @strcpy(i8* noalias returned writeonly, i8* noalias nocapture readonly) local_unnamed_addr #4

; Function Attrs: nofree nounwind
declare noundef i32 @printf(i8* nocapture noundef readonly, ...) local_unnamed_addr #5

; Function Attrs: argmemonly mustprogress nofree nosync nounwind willreturn
declare void @llvm.lifetime.end.p0i8(i64 immarg, i8* nocapture) #1


!llvm.module.flags = !{!0, !1, !2, !3}
!llvm.ident = !{!4}

!0 = !{i32 1, !"wchar_size", i32 4}
!1 = !{i32 7, !"PIC Level", i32 2}
!2 = !{i32 7, !"PIE Level", i32 2}
!3 = !{i32 7, !"uwtable", i32 1}
!4 = !{!"clang version 13.0.0"}
!5 = !{!6, !6, i64 0}
!6 = !{!"omnipotent char", !7, i64 0}
!7 = !{!"Simple C/C++ TBAA"}
!8 = distinct !{!8, !9}
!9 = !{!"llvm.loop.mustprogress"}
!10 = distinct !{!10, !9}
!11 = distinct !{!11, !9}
